target datalayout = "e-m:e-p270:32:32-p271:32:32-p272:64:64-i64:64-i128:128-f80:128-n8:16:32:64-S128"
target triple = "x86_64-pc-linux-gnu"

@orig_pmeth = internal global ptr null, align 8

; Function Attrs: nounwind uwtable
define internal i32 @custom_pmeth_derive(ptr noundef %0, ptr noundef %1, ptr noundef %2) #0 {
  %4 = alloca ptr, align 8
  %5 = alloca ptr, align 8
  %6 = alloca ptr, align 8
  %7 = alloca ptr, align 8
  store ptr %0, ptr %4, align 8, !tbaa !29
  store ptr %1, ptr %5, align 8, !tbaa !4
  store ptr %2, ptr %6, align 8, !tbaa !160
  call void @llvm.lifetime.start.p0(i64 8, ptr %7) #8
  %8 = load ptr, ptr @orig_pmeth, align 8, !tbaa !17
  call void @EVP_PKEY_meth_get_derive(ptr noundef %8, ptr noundef null, ptr noundef %7)
  %9 = load ptr, ptr %7, align 8, !tbaa !54
  %10 = load ptr, ptr %4, align 8, !tbaa !29
  %11 = load ptr, ptr %5, align 8, !tbaa !4
  %12 = load ptr, ptr %6, align 8, !tbaa !160
  %13 = call i32 %9(ptr noundef %10, ptr noundef %11, ptr noundef %12)
  call void @llvm.lifetime.end.p0(i64 8, ptr %7) #8
  ret i32 %13
}