; Function Attrs: nounwind uwtable
define internal i32 @custom_pmeth_derive(ptr noundef %0, ptr noundef %1, ptr noundef %2) #1 {
  %4 = alloca ptr, align 8
  call void @llvm.lifetime.start.p0(i64 8, ptr nonnull %4) #9
  %5 = load ptr, ptr @orig_pmeth, align 8, !tbaa !13
  call void @EVP_PKEY_meth_get_derive(ptr noundef %5, ptr noundef null, ptr noundef nonnull %4) #9
  %6 = load ptr, ptr %4, align 8, !tbaa !34
  %7 = call i32 %6(ptr noundef %0, ptr noundef %1, ptr noundef %2) #9
  call void @llvm.lifetime.end.p0(i64 8, ptr nonnull %4) #9
  ret i32 %7
}